target datalayout = "e-m:e-p270:32:32-p271:32:32-p272:64:64-i64:64-i128:128-f80:128-n8:16:32:64-S128"
target triple = "x86_64-unknown-linux-gnu"

%struct.SCSISense = type { i8, i8, i8 }

@sense_code_IO_ERROR = dso_local constant %struct.SCSISense { i8 11, i8 0, i8 6 }, align 1
@sense_code_NO_MEDIUM = dso_local constant %struct.SCSISense { i8 2, i8 58, i8 0 }, align 1
@sense_code_TARGET_FAILURE = dso_local constant %struct.SCSISense { i8 4, i8 68, i8 0 }, align 1
@sense_code_INVALID_FIELD = dso_local constant %struct.SCSISense { i8 5, i8 36, i8 0 }, align 1
@sense_code_READ_ERROR = dso_local constant %struct.SCSISense { i8 3, i8 17, i8 0 }, align 1
@sense_code_SPACE_ALLOC_FAILED = dso_local constant %struct.SCSISense { i8 7, i8 39, i8 7 }, align 1

; Function Attrs: nounwind sspstrong uwtable
define dso_local i32 @scsi_sense_from_errno(i32 noundef %errno_value, ptr noundef %sense) #0 {
entry:
  %retval = alloca i32, align 4
  %errno_value.addr = alloca i32, align 4
  %sense.addr = alloca ptr, align 8
  store i32 %errno_value, ptr %errno_value.addr, align 4
  store ptr %sense, ptr %sense.addr, align 8
  %0 = load i32, ptr %errno_value.addr, align 4
  switch i32 %0, label %sw.default [
    i32 0, label %sw.bb
    i32 33, label %sw.bb1
    i32 52, label %sw.bb2
    i32 61, label %sw.bb3
    i32 121, label %sw.bb4
    i32 123, label %sw.bb5
    i32 12, label %sw.bb6
    i32 22, label %sw.bb7
    i32 28, label %sw.bb8
  ]

sw.bb:                                            ; preds = %entry
  store i32 0, ptr %retval, align 4
  br label %return

sw.bb1:                                           ; preds = %entry
  store i32 40, ptr %retval, align 4
  br label %return

sw.bb2:                                           ; preds = %entry
  store i32 24, ptr %retval, align 4
  br label %return

sw.bb3:                                           ; preds = %entry
  %1 = load ptr, ptr %sense.addr, align 8
  call void @llvm.memcpy.p0.p0.i64(ptr align 1 %1, ptr align 1 @sense_code_READ_ERROR, i64 3, i1 false)
  store i32 2, ptr %retval, align 4
  br label %return

sw.bb4:                                           ; preds = %entry
  %2 = load ptr, ptr %sense.addr, align 8
  call void @llvm.memcpy.p0.p0.i64(ptr align 1 %2, ptr align 1 @sense_code_TARGET_FAILURE, i64 3, i1 false)
  store i32 2, ptr %retval, align 4
  br label %return

sw.bb5:                                           ; preds = %entry
  %3 = load ptr, ptr %sense.addr, align 8
  call void @llvm.memcpy.p0.p0.i64(ptr align 1 %3, ptr align 1 @sense_code_NO_MEDIUM, i64 3, i1 false)
  store i32 2, ptr %retval, align 4
  br label %return

sw.bb6:                                           ; preds = %entry
  %4 = load ptr, ptr %sense.addr, align 8
  call void @llvm.memcpy.p0.p0.i64(ptr align 1 %4, ptr align 1 @sense_code_TARGET_FAILURE, i64 3, i1 false)
  store i32 2, ptr %retval, align 4
  br label %return

sw.bb7:                                           ; preds = %entry
  %5 = load ptr, ptr %sense.addr, align 8
  call void @llvm.memcpy.p0.p0.i64(ptr align 1 %5, ptr align 1 @sense_code_INVALID_FIELD, i64 3, i1 false)
  store i32 2, ptr %retval, align 4
  br label %return

sw.bb8:                                           ; preds = %entry
  %6 = load ptr, ptr %sense.addr, align 8
  call void @llvm.memcpy.p0.p0.i64(ptr align 1 %6, ptr align 1 @sense_code_SPACE_ALLOC_FAILED, i64 3, i1 false)
  store i32 2, ptr %retval, align 4
  br label %return

sw.default:                                       ; preds = %entry
  %7 = load ptr, ptr %sense.addr, align 8
  call void @llvm.memcpy.p0.p0.i64(ptr align 1 %7, ptr align 1 @sense_code_IO_ERROR, i64 3, i1 false)
  store i32 2, ptr %retval, align 4
  br label %return

return:                                           ; preds = %sw.default, %sw.bb8, %sw.bb7, %sw.bb6, %sw.bb5, %sw.bb4, %sw.bb3, %sw.bb2, %sw.bb1, %sw.bb
  %8 = load i32, ptr %retval, align 4
  ret i32 %8
}