; Function Attrs: mustprogress nofree norecurse nosync nounwind sspstrong willreturn memory(argmem: readwrite) uwtable
define dso_local range(i32 0, 41) i32 @scsi_sense_from_errno(i32 noundef %errno_value, ptr noundef writeonly captures(none) %sense) local_unnamed_addr #4 {
entry:
  switch i32 %errno_value, label %sw.default [
    i32 0, label %return
    i32 33, label %sw.bb1
    i32 52, label %sw.bb2
    i32 61, label %sw.bb3
    i32 121, label %sw.bb4
    i32 123, label %sw.bb5
    i32 12, label %sw.bb6
    i32 22, label %sw.bb7
    i32 28, label %sw.bb8
  ]

sw.bb1:                                           ; preds = %entry
  br label %return

sw.bb2:                                           ; preds = %entry
  br label %return

sw.bb3:                                           ; preds = %entry
  tail call void @llvm.memcpy.p0.p0.i64(ptr noundef nonnull align 1 dereferenceable(3) %sense, ptr noundef nonnull align 1 dereferenceable(3) @sense_code_READ_ERROR, i64 3, i1 false)
  br label %return

sw.bb4:                                           ; preds = %entry
  tail call void @llvm.memcpy.p0.p0.i64(ptr noundef nonnull align 1 dereferenceable(3) %sense, ptr noundef nonnull align 1 dereferenceable(3) @sense_code_TARGET_FAILURE, i64 3, i1 false)
  br label %return

sw.bb5:                                           ; preds = %entry
  tail call void @llvm.memcpy.p0.p0.i64(ptr noundef nonnull align 1 dereferenceable(3) %sense, ptr noundef nonnull align 1 dereferenceable(3) @sense_code_NO_MEDIUM, i64 3, i1 false)
  br label %return

sw.bb6:                                           ; preds = %entry
  tail call void @llvm.memcpy.p0.p0.i64(ptr noundef nonnull align 1 dereferenceable(3) %sense, ptr noundef nonnull align 1 dereferenceable(3) @sense_code_TARGET_FAILURE, i64 3, i1 false)
  br label %return

sw.bb7:                                           ; preds = %entry
  tail call void @llvm.memcpy.p0.p0.i64(ptr noundef nonnull align 1 dereferenceable(3) %sense, ptr noundef nonnull align 1 dereferenceable(3) @sense_code_INVALID_FIELD, i64 3, i1 false)
  br label %return

sw.bb8:                                           ; preds = %entry
  tail call void @llvm.memcpy.p0.p0.i64(ptr noundef nonnull align 1 dereferenceable(3) %sense, ptr noundef nonnull align 1 dereferenceable(3) @sense_code_SPACE_ALLOC_FAILED, i64 3, i1 false)
  br label %return

sw.default:                                       ; preds = %entry
  tail call void @llvm.memcpy.p0.p0.i64(ptr noundef nonnull align 1 dereferenceable(3) %sense, ptr noundef nonnull align 1 dereferenceable(3) @sense_code_IO_ERROR, i64 3, i1 false)
  br label %return

return:                                           ; preds = %entry, %sw.default, %sw.bb8, %sw.bb7, %sw.bb6, %sw.bb5, %sw.bb4, %sw.bb3, %sw.bb2, %sw.bb1
  %retval.0 = phi i32 [ 2, %sw.default ], [ 2, %sw.bb8 ], [ 2, %sw.bb7 ], [ 2, %sw.bb6 ], [ 2, %sw.bb5 ], [ 2, %sw.bb4 ], [ 2, %sw.bb3 ], [ 24, %sw.bb2 ], [ 40, %sw.bb1 ], [ %errno_value, %entry ]
  ret i32 %retval.0
}